target datalayout = "e-m:e-p270:32:32-p271:32:32-p272:64:64-i64:64-i128:128-f80:128-n8:16:32:64-S128"
target triple = "x86_64-pc-linux-gnu"

%struct.commit_graft = type { %struct.object_id, i32, [0 x %struct.object_id] }
%struct.object_id = type { [32 x i8], i32 }

@.str.18 = private unnamed_addr constant [12 x i8] c"shallow %s\0A\00", align 1

; Function Attrs: nounwind uwtable
define internal i32 @advertise_shallow_grafts_cb(ptr noundef %0, ptr noundef %1) #0 {
  %3 = alloca ptr, align 8
  %4 = alloca ptr, align 8
  %5 = alloca i32, align 4
  store ptr %0, ptr %3, align 8, !tbaa !42
  store ptr %1, ptr %4, align 8, !tbaa !55
  call void @llvm.lifetime.start.p0(i64 4, ptr %5) #12
  %6 = load ptr, ptr %4, align 8, !tbaa !55
  %7 = load i32, ptr %6, align 4, !tbaa !11
  store i32 %7, ptr %5, align 4, !tbaa !11
  %8 = load ptr, ptr %3, align 8, !tbaa !42
  %9 = getelementptr inbounds nuw %struct.commit_graft, ptr %8, i32 0, i32 1
  %10 = load i32, ptr %9, align 4, !tbaa !11
  %11 = icmp eq i32 %10, -1
  br i1 %11, label %12, label %17

12:                                               ; preds = %2
  %13 = load i32, ptr %5, align 4, !tbaa !11
  %14 = load ptr, ptr %3, align 8, !tbaa !42
  %15 = getelementptr inbounds nuw %struct.commit_graft, ptr %14, i32 0, i32 0
  %16 = call ptr @oid_to_hex(ptr noundef %15)
  call void (i32, ptr, ...) @packet_write_fmt(i32 noundef %13, ptr noundef @.str.18, ptr noundef %16)
  br label %17

17:                                               ; preds = %12, %2
  call void @llvm.lifetime.end.p0(i64 4, ptr %5) #12
  ret i32 0
}