; Function Attrs: nounwind uwtable
define internal noundef i32 @advertise_shallow_grafts_cb(ptr noundef %0, ptr noundef readonly captures(none) %1) #0 {
  %3 = getelementptr inbounds nuw i8, ptr %0, i64 36
  %4 = load i32, ptr %3, align 4, !tbaa !39
  %5 = icmp eq i32 %4, -1
  br i1 %5, label %6, label %9

6:                                                ; preds = %2
  %7 = load i32, ptr %1, align 4, !tbaa !39
  %8 = tail call ptr @oid_to_hex(ptr noundef nonnull %0) #15
  tail call void (i32, ptr, ...) @packet_write_fmt(i32 noundef %7, ptr noundef nonnull @.str.18, ptr noundef %8) #15
  br label %9

9:                                                ; preds = %6, %2
  ret i32 0
}